target datalayout = "e-m:e-p270:32:32-p271:32:32-p272:64:64-i64:64-i128:128-f80:128-n8:16:32:64-S128"
target triple = "x86_64-pc-linux-gnu"

%class.btVector3 = type { [4 x float] }
%class.btConeTwistConstraint = type { %class.btTypedConstraint, [3 x %class.btJacobianEntry], %class.btTransform, %class.btTransform, float, float, float, float, float, float, float, float, %class.btVector3, %class.btVector3, float, float, float, float, float, float, float, float, i8, i8, i8, i8, float, float, %class.btVector3, i8, i8, %class.btQuaternion, float, %class.btVector3, i32, float, float, float }
%class.btTypedConstraint = type { ptr, %struct.btTypedObject, i32, %union.anon.0, float, i8, i8, i32, ptr, ptr, float, float, ptr }
%struct.btTypedObject = type { i32 }
%union.anon.0 = type { ptr }
%class.btJacobianEntry = type { %class.btVector3, %class.btVector3, %class.btVector3, %class.btVector3, %class.btVector3, float }
%class.btTransform = type { %class.btMatrix3x3, %class.btVector3 }
%class.btMatrix3x3 = type { [3 x %class.btVector3] }
%class.btQuaternion = type { %class.btQuadWord }
%class.btQuadWord = type { [4 x float] }

; Function Attrs: mustprogress nounwind uwtable
define linkonce_odr dso_local void @_ZN21btConeTwistConstraint8setLimitEffffff(ptr noundef nonnull align 8 dereferenceable(632) %0, float noundef %1, float noundef %2, float noundef %3, float noundef %4, float noundef %5, float noundef %6) #1 comdat align 2 {
  %8 = alloca ptr, align 8
  %9 = alloca float, align 4
  %10 = alloca float, align 4
  %11 = alloca float, align 4
  %12 = alloca float, align 4
  %13 = alloca float, align 4
  %14 = alloca float, align 4
  store ptr %0, ptr %8, align 8, !tbaa !12
  store float %1, ptr %9, align 4, !tbaa !50
  store float %2, ptr %10, align 4, !tbaa !50
  store float %3, ptr %11, align 4, !tbaa !50
  store float %4, ptr %12, align 4, !tbaa !50
  store float %5, ptr %13, align 4, !tbaa !50
  store float %6, ptr %14, align 4, !tbaa !50
  %15 = load ptr, ptr %8, align 8
  %16 = load float, ptr %9, align 4, !tbaa !50
  %17 = getelementptr inbounds nuw %class.btConeTwistConstraint, ptr %15, i32 0, i32 8
  store float %16, ptr %17, align 4, !tbaa !53
  %18 = load float, ptr %10, align 4, !tbaa !50
  %19 = getelementptr inbounds nuw %class.btConeTwistConstraint, ptr %15, i32 0, i32 9
  store float %18, ptr %19, align 8, !tbaa !54
  %20 = load float, ptr %11, align 4, !tbaa !50
  %21 = getelementptr inbounds nuw %class.btConeTwistConstraint, ptr %15, i32 0, i32 10
  store float %20, ptr %21, align 4, !tbaa !55
  %22 = load float, ptr %12, align 4, !tbaa !50
  %23 = getelementptr inbounds nuw %class.btConeTwistConstraint, ptr %15, i32 0, i32 4
  store float %22, ptr %23, align 4, !tbaa !56
  %24 = load float, ptr %13, align 4, !tbaa !50
  %25 = getelementptr inbounds nuw %class.btConeTwistConstraint, ptr %15, i32 0, i32 5
  store float %24, ptr %25, align 8, !tbaa !57
  %26 = load float, ptr %14, align 4, !tbaa !50
  %27 = getelementptr inbounds nuw %class.btConeTwistConstraint, ptr %15, i32 0, i32 6
  store float %26, ptr %27, align 4, !tbaa !58
  ret void
}

; Function Attrs: inlinehint mustprogress nounwind uwtable
define linkonce_odr dso_local void @_ZN10btQuadWordC2Ev(ptr noundef nonnull align 4 dereferenceable(16) %0) unnamed_addr #5 comdat align 2 {
  %2 = alloca ptr, align 8
  store ptr %0, ptr %2, align 8, !tbaa !119
  ret void
}

; Function Attrs: inlinehint mustprogress uwtable
define linkonce_odr dso_local void @_ZN11btMatrix3x3C2ERKS_(ptr noundef nonnull align 4 dereferenceable(48) %0, ptr noundef nonnull align 4 dereferenceable(48) %1) unnamed_addr #4 comdat align 2 {
  %3 = alloca ptr, align 8
  %4 = alloca ptr, align 8
  store ptr %0, ptr %3, align 8, !tbaa !68
  store ptr %1, ptr %4, align 8, !tbaa !68
  %5 = load ptr, ptr %3, align 8
  %6 = getelementptr inbounds nuw %class.btMatrix3x3, ptr %5, i32 0, i32 0
  %7 = getelementptr inbounds [3 x %class.btVector3], ptr %6, i32 0, i32 0
  %8 = getelementptr inbounds %class.btVector3, ptr %7, i64 3
  br label %9

9:                                                ; preds = %9, %2
  %10 = phi ptr [ %7, %2 ], [ %11, %9 ]
  call void @_ZN9btVector3C2Ev(ptr noundef nonnull align 4 dereferenceable(16) %10)
  %11 = getelementptr inbounds %class.btVector3, ptr %10, i64 1
  %12 = icmp eq ptr %11, %8
  br i1 %12, label %13, label %9

13:                                               ; preds = %9
  %14 = load ptr, ptr %4, align 8, !tbaa !68
  %15 = getelementptr inbounds nuw %class.btMatrix3x3, ptr %14, i32 0, i32 0
  %16 = getelementptr inbounds [3 x %class.btVector3], ptr %15, i64 0, i64 0
  %17 = getelementptr inbounds nuw %class.btMatrix3x3, ptr %5, i32 0, i32 0
  %18 = getelementptr inbounds [3 x %class.btVector3], ptr %17, i64 0, i64 0
  call void @llvm.memcpy.p0.p0.i64(ptr align 4 %18, ptr align 4 %16, i64 16, i1 false), !tbaa.struct !35
  %19 = load ptr, ptr %4, align 8, !tbaa !68
  %20 = getelementptr inbounds nuw %class.btMatrix3x3, ptr %19, i32 0, i32 0
  %21 = getelementptr inbounds [3 x %class.btVector3], ptr %20, i64 0, i64 1
  %22 = getelementptr inbounds nuw %class.btMatrix3x3, ptr %5, i32 0, i32 0
  %23 = getelementptr inbounds [3 x %class.btVector3], ptr %22, i64 0, i64 1
  call void @llvm.memcpy.p0.p0.i64(ptr align 4 %23, ptr align 4 %21, i64 16, i1 false), !tbaa.struct !35
  %24 = load ptr, ptr %4, align 8, !tbaa !68
  %25 = getelementptr inbounds nuw %class.btMatrix3x3, ptr %24, i32 0, i32 0
  %26 = getelementptr inbounds [3 x %class.btVector3], ptr %25, i64 0, i64 2
  %27 = getelementptr inbounds nuw %class.btMatrix3x3, ptr %5, i32 0, i32 0
  %28 = getelementptr inbounds [3 x %class.btVector3], ptr %27, i64 0, i64 2
  call void @llvm.memcpy.p0.p0.i64(ptr align 4 %28, ptr align 4 %26, i64 16, i1 false), !tbaa.struct !35
  ret void
}

; Function Attrs: mustprogress nounwind uwtable
define linkonce_odr dso_local void @_ZN17btTypedConstraintD2Ev(ptr noundef nonnull align 8 dereferenceable(72) %0) unnamed_addr #1 comdat align 2 {
  %2 = alloca ptr, align 8
  store ptr %0, ptr %2, align 8, !tbaa !121
  ret void
}

; Function Attrs: mustprogress uwtable
define dso_local void @_ZN21btConeTwistConstraint4initEv(ptr noundef nonnull align 8 dereferenceable(632) %0) #2 align 2 {
  %2 = alloca ptr, align 8
  store ptr %0, ptr %2, align 8, !tbaa !12
  %3 = load ptr, ptr %2, align 8
  %4 = getelementptr inbounds nuw %class.btConeTwistConstraint, ptr %3, i32 0, i32 22
  store i8 0, ptr %4, align 4, !tbaa !20
  %5 = getelementptr inbounds nuw %class.btConeTwistConstraint, ptr %3, i32 0, i32 23
  store i8 0, ptr %5, align 1, !tbaa !40
  %6 = getelementptr inbounds nuw %class.btConeTwistConstraint, ptr %3, i32 0, i32 24
  store i8 0, ptr %6, align 2, !tbaa !41
  %7 = getelementptr inbounds nuw %class.btConeTwistConstraint, ptr %3, i32 0, i32 29
  store i8 0, ptr %7, align 8, !tbaa !42
  %8 = getelementptr inbounds nuw %class.btConeTwistConstraint, ptr %3, i32 0, i32 32
  store float -1.000000e+00, ptr %8, align 4, !tbaa !43
  call void @_ZN21btConeTwistConstraint8setLimitEffffff(ptr noundef nonnull align 8 dereferenceable(632) %3, float noundef 0x43ABC16D60000000, float noundef 0x43ABC16D60000000, float noundef 0x43ABC16D60000000, float noundef 1.000000e+00, float noundef 0x3FD3333340000000, float noundef 1.000000e+00)
  %9 = getelementptr inbounds nuw %class.btConeTwistConstraint, ptr %3, i32 0, i32 7
  store float 0x3F847AE140000000, ptr %9, align 8, !tbaa !44
  %10 = getelementptr inbounds nuw %class.btConeTwistConstraint, ptr %3, i32 0, i32 11
  store float 0x3FA99999A0000000, ptr %10, align 8, !tbaa !45
  %11 = getelementptr inbounds nuw %class.btConeTwistConstraint, ptr %3, i32 0, i32 34
  store i32 0, ptr %11, align 8, !tbaa !46
  %12 = getelementptr inbounds nuw %class.btConeTwistConstraint, ptr %3, i32 0, i32 35
  store float 0.000000e+00, ptr %12, align 4, !tbaa !47
  %13 = getelementptr inbounds nuw %class.btConeTwistConstraint, ptr %3, i32 0, i32 36
  store float 0x3FE6666660000000, ptr %13, align 8, !tbaa !48
  %14 = getelementptr inbounds nuw %class.btConeTwistConstraint, ptr %3, i32 0, i32 37
  store float 0.000000e+00, ptr %14, align 4, !tbaa !49
  ret void
}

; Function Attrs: mustprogress uwtable
define linkonce_odr dso_local void @_ZN12btQuaternionC2Ev(ptr noundef nonnull align 4 dereferenceable(16) %0) unnamed_addr #2 comdat align 2 {
  %2 = alloca ptr, align 8
  store ptr %0, ptr %2, align 8, !tbaa !38
  %3 = load ptr, ptr %2, align 8
  call void @_ZN10btQuadWordC2Ev(ptr noundef nonnull align 4 dereferenceable(16) %3)
  ret void
}

; Function Attrs: inlinehint mustprogress nounwind uwtable
define linkonce_odr dso_local void @_ZN9btVector3C2Ev(ptr noundef nonnull align 4 dereferenceable(16) %0) unnamed_addr #5 comdat align 2 {
  %2 = alloca ptr, align 8
  store ptr %0, ptr %2, align 8, !tbaa !36
  ret void
}

; Function Attrs: inlinehint mustprogress uwtable
define linkonce_odr dso_local void @_ZN11btTransformC2ERKS_(ptr noundef nonnull align 4 dereferenceable(64) %0, ptr noundef nonnull align 4 dereferenceable(64) %1) unnamed_addr #4 comdat align 2 {
  %3 = alloca ptr, align 8
  %4 = alloca ptr, align 8
  store ptr %0, ptr %3, align 8, !tbaa !16
  store ptr %1, ptr %4, align 8, !tbaa !16
  %5 = load ptr, ptr %3, align 8
  %6 = getelementptr inbounds nuw %class.btTransform, ptr %5, i32 0, i32 0
  %7 = load ptr, ptr %4, align 8, !tbaa !16
  %8 = getelementptr inbounds nuw %class.btTransform, ptr %7, i32 0, i32 0
  call void @_ZN11btMatrix3x3C2ERKS_(ptr noundef nonnull align 4 dereferenceable(48) %6, ptr noundef nonnull align 4 dereferenceable(48) %8)
  %9 = getelementptr inbounds nuw %class.btTransform, ptr %5, i32 0, i32 1
  %10 = load ptr, ptr %4, align 8, !tbaa !16
  %11 = getelementptr inbounds nuw %class.btTransform, ptr %10, i32 0, i32 1
  call void @llvm.memcpy.p0.p0.i64(ptr align 4 %9, ptr align 4 %11, i64 16, i1 false), !tbaa.struct !35
  ret void
}

; Function Attrs: mustprogress uwtable
define linkonce_odr dso_local void @_ZN15btJacobianEntryC2Ev(ptr noundef nonnull align 4 dereferenceable(84) %0) unnamed_addr #2 comdat align 2 {
  %2 = alloca ptr, align 8
  store ptr %0, ptr %2, align 8, !tbaa !33
  %3 = load ptr, ptr %2, align 8
  %4 = getelementptr inbounds nuw %class.btJacobianEntry, ptr %3, i32 0, i32 0
  call void @_ZN9btVector3C2Ev(ptr noundef nonnull align 4 dereferenceable(16) %4)
  %5 = getelementptr inbounds nuw %class.btJacobianEntry, ptr %3, i32 0, i32 1
  call void @_ZN9btVector3C2Ev(ptr noundef nonnull align 4 dereferenceable(16) %5)
  %6 = getelementptr inbounds nuw %class.btJacobianEntry, ptr %3, i32 0, i32 2
  call void @_ZN9btVector3C2Ev(ptr noundef nonnull align 4 dereferenceable(16) %6)
  %7 = getelementptr inbounds nuw %class.btJacobianEntry, ptr %3, i32 0, i32 3
  call void @_ZN9btVector3C2Ev(ptr noundef nonnull align 4 dereferenceable(16) %7)
  %8 = getelementptr inbounds nuw %class.btJacobianEntry, ptr %3, i32 0, i32 4
  call void @_ZN9btVector3C2Ev(ptr noundef nonnull align 4 dereferenceable(16) %8)
  ret void
}

; Function Attrs: mustprogress uwtable
define dso_local void @_ZN21btConeTwistConstraintC2ER11btRigidBodyS1_RK11btTransformS4_(ptr noundef nonnull align 8 dereferenceable(632) %0, ptr noundef nonnull align 8 dereferenceable(744) %1, ptr noundef nonnull align 8 dereferenceable(744) %2, ptr noundef nonnull align 4 dereferenceable(64) %3, ptr noundef nonnull align 4 dereferenceable(64) %4) unnamed_addr #2 align 2 personality ptr @__gxx_personality_v0 {
  %6 = alloca ptr, align 8
  %7 = alloca ptr, align 8
  %8 = alloca ptr, align 8
  %9 = alloca ptr, align 8
  %10 = alloca ptr, align 8
  %11 = alloca ptr, align 8
  %12 = alloca i32, align 4
  store ptr %0, ptr %6, align 8, !tbaa !12
  store ptr %1, ptr %7, align 8, !tbaa !14
  store ptr %2, ptr %8, align 8, !tbaa !14
  store ptr %3, ptr %9, align 8, !tbaa !16
  store ptr %4, ptr %10, align 8, !tbaa !16
  %13 = load ptr, ptr %6, align 8
  %14 = load ptr, ptr %7, align 8, !tbaa !14
  %15 = load ptr, ptr %8, align 8, !tbaa !14
  call void @_ZN17btTypedConstraintC2E21btTypedConstraintTypeR11btRigidBodyS2_(ptr noundef nonnull align 8 dereferenceable(72) %13, i32 noundef 5, ptr noundef nonnull align 8 dereferenceable(744) %14, ptr noundef nonnull align 8 dereferenceable(744) %15)
  store ptr getelementptr inbounds inrange(-16, 96) ({ [14 x ptr] }, ptr @_ZTV21btConeTwistConstraint, i32 0, i32 0, i32 2), ptr %13, align 8, !tbaa !18
  %16 = getelementptr inbounds nuw %class.btConeTwistConstraint, ptr %13, i32 0, i32 1
  %17 = getelementptr inbounds [3 x %class.btJacobianEntry], ptr %16, i32 0, i32 0
  %18 = getelementptr inbounds %class.btJacobianEntry, ptr %17, i64 3
  br label %19

19:                                               ; preds = %21, %5
  %20 = phi ptr [ %17, %5 ], [ %22, %21 ]
  invoke void @_ZN15btJacobianEntryC2Ev(ptr noundef nonnull align 4 dereferenceable(84) %20)
          to label %21 unwind label %44

21:                                               ; preds = %19
  %22 = getelementptr inbounds %class.btJacobianEntry, ptr %20, i64 1
  %23 = icmp eq ptr %22, %18
  br i1 %23, label %24, label %19

24:                                               ; preds = %21
  %25 = getelementptr inbounds nuw %class.btConeTwistConstraint, ptr %13, i32 0, i32 2
  %26 = load ptr, ptr %9, align 8, !tbaa !16
  invoke void @_ZN11btTransformC2ERKS_(ptr noundef nonnull align 4 dereferenceable(64) %25, ptr noundef nonnull align 4 dereferenceable(64) %26)
          to label %27 unwind label %44

27:                                               ; preds = %24
  %28 = getelementptr inbounds nuw %class.btConeTwistConstraint, ptr %13, i32 0, i32 3
  %29 = load ptr, ptr %10, align 8, !tbaa !16
  invoke void @_ZN11btTransformC2ERKS_(ptr noundef nonnull align 4 dereferenceable(64) %28, ptr noundef nonnull align 4 dereferenceable(64) %29)
          to label %30 unwind label %44

30:                                               ; preds = %27
  %31 = getelementptr inbounds nuw %class.btConeTwistConstraint, ptr %13, i32 0, i32 12
  invoke void @_ZN9btVector3C2Ev(ptr noundef nonnull align 4 dereferenceable(16) %31)
          to label %32 unwind label %44

32:                                               ; preds = %30
  %33 = getelementptr inbounds nuw %class.btConeTwistConstraint, ptr %13, i32 0, i32 13
  invoke void @_ZN9btVector3C2Ev(ptr noundef nonnull align 4 dereferenceable(16) %33)
          to label %34 unwind label %44

34:                                               ; preds = %32
  %35 = getelementptr inbounds nuw %class.btConeTwistConstraint, ptr %13, i32 0, i32 22
  store i8 0, ptr %35, align 4, !tbaa !20
  %36 = getelementptr inbounds nuw %class.btConeTwistConstraint, ptr %13, i32 0, i32 25
  store i8 0, ptr %36, align 1, !tbaa !32
  %37 = getelementptr inbounds nuw %class.btConeTwistConstraint, ptr %13, i32 0, i32 28
  invoke void @_ZN9btVector3C2Ev(ptr noundef nonnull align 4 dereferenceable(16) %37)
          to label %38 unwind label %44

38:                                               ; preds = %34
  %39 = getelementptr inbounds nuw %class.btConeTwistConstraint, ptr %13, i32 0, i32 31
  invoke void @_ZN12btQuaternionC2Ev(ptr noundef nonnull align 4 dereferenceable(16) %39)
          to label %40 unwind label %44

40:                                               ; preds = %38
  %41 = getelementptr inbounds nuw %class.btConeTwistConstraint, ptr %13, i32 0, i32 33
  invoke void @_ZN9btVector3C2Ev(ptr noundef nonnull align 4 dereferenceable(16) %41)
          to label %42 unwind label %44

42:                                               ; preds = %40
  invoke void @_ZN21btConeTwistConstraint4initEv(ptr noundef nonnull align 8 dereferenceable(632) %13)
          to label %43 unwind label %44

43:                                               ; preds = %42
  ret void

44:                                               ; preds = %42, %40, %38, %34, %32, %30, %27, %24, %19
  %45 = landingpad { ptr, i32 }
          cleanup
  %46 = extractvalue { ptr, i32 } %45, 0
  store ptr %46, ptr %11, align 8
  %47 = extractvalue { ptr, i32 } %45, 1
  store i32 %47, ptr %12, align 4
  call void @_ZN17btTypedConstraintD2Ev(ptr noundef nonnull align 8 dereferenceable(72) %13) #13
  br label %48

48:                                               ; preds = %44
  %49 = load ptr, ptr %11, align 8
  %50 = load i32, ptr %12, align 4
  %51 = insertvalue { ptr, i32 } poison, ptr %49, 0
  %52 = insertvalue { ptr, i32 } %51, i32 %50, 1
  resume { ptr, i32 } %52
}