; Function Attrs: mustprogress uwtable
define dso_local void @_ZN21btConeTwistConstraintC2ER11btRigidBodyS1_RK11btTransformS4_(ptr noundef nonnull align 8 dereferenceable(632) %0, ptr noundef nonnull align 8 dereferenceable(744) %1, ptr noundef nonnull align 8 dereferenceable(744) %2, ptr noundef nonnull readonly align 4 captures(none) dereferenceable(64) %3, ptr noundef nonnull readonly align 4 captures(none) dereferenceable(64) %4) unnamed_addr #0 align 2 personality ptr @__gxx_personality_v0 {
  tail call void @_ZN17btTypedConstraintC2E21btTypedConstraintTypeR11btRigidBodyS2_(ptr noundef nonnull align 8 dereferenceable(72) %0, i32 noundef 5, ptr noundef nonnull align 8 dereferenceable(744) %1, ptr noundef nonnull align 8 dereferenceable(744) %2)
  store ptr getelementptr inbounds nuw inrange(-16, 96) (i8, ptr @_ZTV21btConeTwistConstraint, i64 16), ptr %0, align 8, !tbaa !4
  %6 = getelementptr inbounds nuw i8, ptr %0, i64 324
  tail call void @llvm.memcpy.p0.p0.i64(ptr noundef nonnull align 4 dereferenceable(64) %6, ptr noundef nonnull align 4 dereferenceable(64) %3, i64 16, i1 false), !tbaa.struct !7
  %7 = getelementptr inbounds nuw i8, ptr %3, i64 16
  %8 = getelementptr inbounds nuw i8, ptr %0, i64 340
  tail call void @llvm.memcpy.p0.p0.i64(ptr noundef nonnull align 4 dereferenceable(16) %8, ptr noundef nonnull align 4 dereferenceable(16) %7, i64 16, i1 false), !tbaa.struct !7
  %9 = getelementptr inbounds nuw i8, ptr %3, i64 32
  %10 = getelementptr inbounds nuw i8, ptr %0, i64 356
  tail call void @llvm.memcpy.p0.p0.i64(ptr noundef nonnull align 4 dereferenceable(16) %10, ptr noundef nonnull align 4 dereferenceable(16) %9, i64 16, i1 false), !tbaa.struct !7
  %11 = getelementptr inbounds nuw i8, ptr %0, i64 372
  %12 = getelementptr inbounds nuw i8, ptr %3, i64 48
  tail call void @llvm.memcpy.p0.p0.i64(ptr noundef nonnull align 4 dereferenceable(16) %11, ptr noundef nonnull align 4 dereferenceable(16) %12, i64 16, i1 false), !tbaa.struct !7
  %13 = getelementptr inbounds nuw i8, ptr %0, i64 388
  tail call void @llvm.memcpy.p0.p0.i64(ptr noundef nonnull align 4 dereferenceable(64) %13, ptr noundef nonnull align 4 dereferenceable(64) %4, i64 16, i1 false), !tbaa.struct !7
  %14 = getelementptr inbounds nuw i8, ptr %4, i64 16
  %15 = getelementptr inbounds nuw i8, ptr %0, i64 404
  tail call void @llvm.memcpy.p0.p0.i64(ptr noundef nonnull align 4 dereferenceable(16) %15, ptr noundef nonnull align 4 dereferenceable(16) %14, i64 16, i1 false), !tbaa.struct !7
  %16 = getelementptr inbounds nuw i8, ptr %4, i64 32
  %17 = getelementptr inbounds nuw i8, ptr %0, i64 420
  tail call void @llvm.memcpy.p0.p0.i64(ptr noundef nonnull align 4 dereferenceable(16) %17, ptr noundef nonnull align 4 dereferenceable(16) %16, i64 16, i1 false), !tbaa.struct !7
  %18 = getelementptr inbounds nuw i8, ptr %0, i64 436
  %19 = getelementptr inbounds nuw i8, ptr %4, i64 48
  tail call void @llvm.memcpy.p0.p0.i64(ptr noundef nonnull align 4 dereferenceable(16) %18, ptr noundef nonnull align 4 dereferenceable(16) %19, i64 16, i1 false), !tbaa.struct !7
  %20 = getelementptr inbounds nuw i8, ptr %0, i64 548
  %21 = getelementptr inbounds nuw i8, ptr %0, i64 576
  store i8 0, ptr %21, align 8, !tbaa !10
  %22 = getelementptr inbounds nuw i8, ptr %0, i64 596
  store i32 0, ptr %20, align 4
  store float -1.000000e+00, ptr %22, align 4, !tbaa !25
  %23 = getelementptr inbounds nuw i8, ptr %0, i64 468
  store float 0x43ABC16D60000000, ptr %23, align 4, !tbaa !26
  %24 = getelementptr inbounds nuw i8, ptr %0, i64 472
  store float 0x43ABC16D60000000, ptr %24, align 8, !tbaa !27
  %25 = getelementptr inbounds nuw i8, ptr %0, i64 476
  store float 0x43ABC16D60000000, ptr %25, align 4, !tbaa !28
  %26 = getelementptr inbounds nuw i8, ptr %0, i64 452
  store float 1.000000e+00, ptr %26, align 4, !tbaa !29
  %27 = getelementptr inbounds nuw i8, ptr %0, i64 456
  store float 0x3FD3333340000000, ptr %27, align 8, !tbaa !30
  %28 = getelementptr inbounds nuw i8, ptr %0, i64 460
  store float 1.000000e+00, ptr %28, align 4, !tbaa !31
  %29 = getelementptr inbounds nuw i8, ptr %0, i64 464
  store float 0x3F847AE140000000, ptr %29, align 8, !tbaa !32
  %30 = getelementptr inbounds nuw i8, ptr %0, i64 480
  store float 0x3FA99999A0000000, ptr %30, align 8, !tbaa !33
  %31 = getelementptr inbounds nuw i8, ptr %0, i64 616
  store i32 0, ptr %31, align 8, !tbaa !34
  %32 = getelementptr inbounds nuw i8, ptr %0, i64 620
  store float 0.000000e+00, ptr %32, align 4, !tbaa !35
  %33 = getelementptr inbounds nuw i8, ptr %0, i64 624
  store float 0x3FE6666660000000, ptr %33, align 8, !tbaa !36
  %34 = getelementptr inbounds nuw i8, ptr %0, i64 628
  store float 0.000000e+00, ptr %34, align 4, !tbaa !37
  ret void
}